; ModuleID = '14/1297.c'
source_filename = "14/1297.c"
target datalayout = "e-m:e-p270:32:32-p271:32:32-p272:64:64-i64:64-f80:128-n8:16:32:64-S128"
target triple = "x86_64-pc-linux-gnu"

%struct.student = type { i32, i32, i32, i32, %struct.student* }

@.str = private unnamed_addr constant [3 x i8] c"%d\00", align 1
@n = common dso_local global i32 0, align 4
@.str.1 = private unnamed_addr constant [7 x i8] c"%d%d%d\00", align 1
@.str.2 = private unnamed_addr constant [7 x i8] c"%d %d\0A\00", align 1

; Function Attrs: noinline nounwind uwtable
define dso_local %struct.student* @creat() #0 {
  %1 = alloca %struct.student*, align 8
  %2 = alloca %struct.student*, align 8
  %3 = alloca %struct.student*, align 8
  %4 = call noalias i8* @malloc(i64 100) #3
  %5 = bitcast i8* %4 to %struct.student*
  store %struct.student* %5, %struct.student** %3, align 8
  store %struct.student* %5, %struct.student** %2, align 8
  %6 = call i32 (i8*, ...) @__isoc99_scanf(i8* getelementptr inbounds ([3 x i8], [3 x i8]* @.str, i64 0, i64 0), i32* @n)
  %7 = load %struct.student*, %struct.student** %2, align 8
  %8 = getelementptr inbounds %struct.student, %struct.student* %7, i32 0, i32 0
  %9 = load %struct.student*, %struct.student** %2, align 8
  %10 = getelementptr inbounds %struct.student, %struct.student* %9, i32 0, i32 1
  %11 = load %struct.student*, %struct.student** %2, align 8
  %12 = getelementptr inbounds %struct.student, %struct.student* %11, i32 0, i32 2
  %13 = call i32 (i8*, ...) @__isoc99_scanf(i8* getelementptr inbounds ([7 x i8], [7 x i8]* @.str.1, i64 0, i64 0), i32* %8, i32* %10, i32* %12)
  %14 = load %struct.student*, %struct.student** %2, align 8
  %15 = getelementptr inbounds %struct.student, %struct.student* %14, i32 0, i32 1
  %16 = load i32, i32* %15, align 4
  %17 = load %struct.student*, %struct.student** %2, align 8
  %18 = getelementptr inbounds %struct.student, %struct.student* %17, i32 0, i32 2
  %19 = load i32, i32* %18, align 8
  %20 = add nsw i32 %16, %19
  %21 = load %struct.student*, %struct.student** %2, align 8
  %22 = getelementptr inbounds %struct.student, %struct.student* %21, i32 0, i32 3
  store i32 %20, i32* %22, align 4
  store %struct.student* null, %struct.student** %1, align 8
  br label %23

23:                                               ; preds = %36, %0
  %24 = load %struct.student*, %struct.student** %2, align 8
  %25 = getelementptr inbounds %struct.student, %struct.student* %24, i32 0, i32 0
  %26 = load i32, i32* %25, align 8
  %27 = load i32, i32* @n, align 4
  %28 = icmp slt i32 %26, %27
  br i1 %28, label %29, label %59

29:                                               ; preds = %23
  %30 = load %struct.student*, %struct.student** %2, align 8
  %31 = getelementptr inbounds %struct.student, %struct.student* %30, i32 0, i32 0
  %32 = load i32, i32* %31, align 8
  %33 = icmp eq i32 %32, 1
  br i1 %33, label %34, label %36

34:                                               ; preds = %29
  %35 = load %struct.student*, %struct.student** %2, align 8
  store %struct.student* %35, %struct.student** %1, align 8
  br label %36

36:                                               ; preds = %34, %29
  %37 = call noalias i8* @malloc(i64 100) #3
  %38 = bitcast i8* %37 to %struct.student*
  store %struct.student* %38, %struct.student** %2, align 8
  %39 = load %struct.student*, %struct.student** %2, align 8
  %40 = getelementptr inbounds %struct.student, %struct.student* %39, i32 0, i32 0
  %41 = load %struct.student*, %struct.student** %2, align 8
  %42 = getelementptr inbounds %struct.student, %struct.student* %41, i32 0, i32 1
  %43 = load %struct.student*, %struct.student** %2, align 8
  %44 = getelementptr inbounds %struct.student, %struct.student* %43, i32 0, i32 2
  %45 = call i32 (i8*, ...) @__isoc99_scanf(i8* getelementptr inbounds ([7 x i8], [7 x i8]* @.str.1, i64 0, i64 0), i32* %40, i32* %42, i32* %44)
  %46 = load %struct.student*, %struct.student** %2, align 8
  %47 = getelementptr inbounds %struct.student, %struct.student* %46, i32 0, i32 1
  %48 = load i32, i32* %47, align 4
  %49 = load %struct.student*, %struct.student** %2, align 8
  %50 = getelementptr inbounds %struct.student, %struct.student* %49, i32 0, i32 2
  %51 = load i32, i32* %50, align 8
  %52 = add nsw i32 %48, %51
  %53 = load %struct.student*, %struct.student** %2, align 8
  %54 = getelementptr inbounds %struct.student, %struct.student* %53, i32 0, i32 3
  store i32 %52, i32* %54, align 4
  %55 = load %struct.student*, %struct.student** %2, align 8
  %56 = load %struct.student*, %struct.student** %3, align 8
  %57 = getelementptr inbounds %struct.student, %struct.student* %56, i32 0, i32 4
  store %struct.student* %55, %struct.student** %57, align 8
  %58 = load %struct.student*, %struct.student** %2, align 8
  store %struct.student* %58, %struct.student** %3, align 8
  br label %23

59:                                               ; preds = %23
  %60 = load %struct.student*, %struct.student** %3, align 8
  %61 = getelementptr inbounds %struct.student, %struct.student* %60, i32 0, i32 4
  store %struct.student* null, %struct.student** %61, align 8
  %62 = load %struct.student*, %struct.student** %1, align 8
  ret %struct.student* %62
}

; Function Attrs: nounwind
declare dso_local noalias i8* @malloc(i64) #1

declare dso_local i32 @__isoc99_scanf(i8*, ...) #2

; Function Attrs: noinline nounwind uwtable
define dso_local void @main() #0 {
  %1 = alloca %struct.student*, align 8
  %2 = alloca %struct.student*, align 8
  %3 = alloca %struct.student*, align 8
  %4 = alloca %struct.student*, align 8
  %5 = alloca %struct.student*, align 8
  %6 = call %struct.student* @creat()
  store %struct.student* %6, %struct.student** %1, align 8
  %7 = load %struct.student*, %struct.student** %1, align 8
  store %struct.student* %7, %struct.student** %5, align 8
  %8 = load %struct.student*, %struct.student** %1, align 8
  store %struct.student* %8, %struct.student** %2, align 8
  %9 = load %struct.student*, %struct.student** %1, align 8
  store %struct.student* %9, %struct.student** %3, align 8
  %10 = load %struct.student*, %struct.student** %1, align 8
  store %struct.student* %10, %struct.student** %4, align 8
  br label %11

11:                                               ; preds = %50, %0
  %12 = load %struct.student*, %struct.student** %5, align 8
  %13 = icmp ne %struct.student* %12, null
  br i1 %13, label %14, label %54

14:                                               ; preds = %11
  %15 = load %struct.student*, %struct.student** %5, align 8
  %16 = getelementptr inbounds %struct.student, %struct.student* %15, i32 0, i32 3
  %17 = load i32, i32* %16, align 4
  %18 = load %struct.student*, %struct.student** %2, align 8
  %19 = getelementptr inbounds %struct.student, %struct.student* %18, i32 0, i32 3
  %20 = load i32, i32* %19, align 4
  %21 = icmp sgt i32 %17, %20
  br i1 %21, label %22, label %26

22:                                               ; preds = %14
  %23 = load %struct.student*, %struct.student** %3, align 8
  store %struct.student* %23, %struct.student** %4, align 8
  %24 = load %struct.student*, %struct.student** %2, align 8
  store %struct.student* %24, %struct.student** %3, align 8
  %25 = load %struct.student*, %struct.student** %5, align 8
  store %struct.student* %25, %struct.student** %2, align 8
  br label %49

26:                                               ; preds = %14
  %27 = load %struct.student*, %struct.student** %5, align 8
  %28 = getelementptr inbounds %struct.student, %struct.student* %27, i32 0, i32 3
  %29 = load i32, i32* %28, align 4
  %30 = load %struct.student*, %struct.student** %3, align 8
  %31 = getelementptr inbounds %struct.student, %struct.student* %30, i32 0, i32 3
  %32 = load i32, i32* %31, align 4
  %33 = icmp sgt i32 %29, %32
  br i1 %33, label %34, label %37

34:                                               ; preds = %26
  %35 = load %struct.student*, %struct.student** %3, align 8
  store %struct.student* %35, %struct.student** %4, align 8
  %36 = load %struct.student*, %struct.student** %5, align 8
  store %struct.student* %36, %struct.student** %3, align 8
  br label %48

37:                                               ; preds = %26
  %38 = load %struct.student*, %struct.student** %5, align 8
  %39 = getelementptr inbounds %struct.student, %struct.student* %38, i32 0, i32 3
  %40 = load i32, i32* %39, align 4
  %41 = load %struct.student*, %struct.student** %4, align 8
  %42 = getelementptr inbounds %struct.student, %struct.student* %41, i32 0, i32 3
  %43 = load i32, i32* %42, align 4
  %44 = icmp sgt i32 %40, %43
  br i1 %44, label %45, label %47

45:                                               ; preds = %37
  %46 = load %struct.student*, %struct.student** %5, align 8
  store %struct.student* %46, %struct.student** %4, align 8
  br label %47

47:                                               ; preds = %45, %37
  br label %48

48:                                               ; preds = %47, %34
  br label %49

49:                                               ; preds = %48, %22
  br label %50

50:                                               ; preds = %49
  %51 = load %struct.student*, %struct.student** %5, align 8
  %52 = getelementptr inbounds %struct.student, %struct.student* %51, i32 0, i32 4
  %53 = load %struct.student*, %struct.student** %52, align 8
  store %struct.student* %53, %struct.student** %5, align 8
  br label %11

54:                                               ; preds = %11
  %55 = load %struct.student*, %struct.student** %2, align 8
  %56 = getelementptr inbounds %struct.student, %struct.student* %55, i32 0, i32 0
  %57 = load i32, i32* %56, align 8
  %58 = load %struct.student*, %struct.student** %2, align 8
  %59 = getelementptr inbounds %struct.student, %struct.student* %58, i32 0, i32 3
  %60 = load i32, i32* %59, align 4
  %61 = call i32 (i8*, ...) @printf(i8* getelementptr inbounds ([7 x i8], [7 x i8]* @.str.2, i64 0, i64 0), i32 %57, i32 %60)
  %62 = load %struct.student*, %struct.student** %3, align 8
  %63 = getelementptr inbounds %struct.student, %struct.student* %62, i32 0, i32 0
  %64 = load i32, i32* %63, align 8
  %65 = load %struct.student*, %struct.student** %3, align 8
  %66 = getelementptr inbounds %struct.student, %struct.student* %65, i32 0, i32 3
  %67 = load i32, i32* %66, align 4
  %68 = call i32 (i8*, ...) @printf(i8* getelementptr inbounds ([7 x i8], [7 x i8]* @.str.2, i64 0, i64 0), i32 %64, i32 %67)
  %69 = load %struct.student*, %struct.student** %4, align 8
  %70 = getelementptr inbounds %struct.student, %struct.student* %69, i32 0, i32 0
  %71 = load i32, i32* %70, align 8
  %72 = load %struct.student*, %struct.student** %4, align 8
  %73 = getelementptr inbounds %struct.student, %struct.student* %72, i32 0, i32 3
  %74 = load i32, i32* %73, align 4
  %75 = call i32 (i8*, ...) @printf(i8* getelementptr inbounds ([7 x i8], [7 x i8]* @.str.2, i64 0, i64 0), i32 %71, i32 %74)
  ret void
}

declare dso_local i32 @printf(i8*, ...) #2


!llvm.module.flags = !{!0}
!llvm.ident = !{!1}

!0 = !{i32 1, !"wchar_size", i32 4}
!1 = !{!"clang version 10.0.0-4ubuntu1 "}
